target datalayout = "e-m:e-p270:32:32-p271:32:32-p272:64:64-i64:64-i128:128-f80:128-n8:16:32:64-S128"
target triple = "x86_64-unknown-linux-gnu"

%struct.Flash = type { %struct.SSIPeripheral, ptr, ptr, i32, i32, i8, [16 x i8], i32, i32, i8, i8, i8, i32, i32, i32, i32, i8, i8, i8, i8, i8, i8, i8, i8, i8, i8, i8, i8, i8, i8, i8, i8, i8, i8, i8, i8, i8, i64, ptr }
%struct.SSIPeripheral = type { %struct.DeviceState, ptr, i8, i8 }
%struct.DeviceState = type { %struct.Object, ptr, ptr, i8, i8, i64, ptr, i32, i8, ptr, %struct.NamedGPIOListHead, %struct.NamedClockListHead, %struct.BusStateHead, i32, i32, i32, %struct.ResettableState, ptr, %struct.MemReentrancyGuard }
%struct.Object = type { ptr, ptr, ptr, i32, ptr }
%struct.NamedGPIOListHead = type { ptr }
%struct.NamedClockListHead = type { ptr }
%struct.BusStateHead = type { ptr }
%struct.ResettableState = type { i32, i8, i8 }
%struct.MemReentrancyGuard = type { i8 }
%struct.timeval = type { i64, i64 }

@.str = private unnamed_addr constant [15 x i8] c"m25p80-generic\00", align 1
@.str.139 = private unnamed_addr constant [26 x i8] c"../qemu/hw/block/m25p80.c\00", align 1
@trace_events_enabled_count = external global i32, align 4
@message_with_timestamp = external global i8, align 1
@qemu_loglevel = external global i32, align 4
@.str.192 = private unnamed_addr constant [3 x i8] c"de\00", align 1
@.str.193 = private unnamed_addr constant [1 x i8] zeroinitializer, align 1
@_TRACE_M25P80_SELECT_DSTATE = external global i16, align 2
@.str.194 = private unnamed_addr constant [42 x i8] c"%d@%zu.%06zu:m25p80_select [%p] %sselect\0A\00", align 1
@.str.195 = private unnamed_addr constant [29 x i8] c"m25p80_select [%p] %sselect\0A\00", align 1
@__func__.M25P80 = private unnamed_addr constant [7 x i8] c"M25P80\00", align 1

; Function Attrs: nounwind sspstrong uwtable
define internal zeroext i1 @qemu_loglevel_mask(i32 noundef %mask) #0 {
entry:
  %mask.addr = alloca i32, align 4
  store i32 %mask, ptr %mask.addr, align 4
  %0 = load i32, ptr @qemu_loglevel, align 4
  %1 = load i32, ptr %mask.addr, align 4
  %and = and i32 %0, %1
  %cmp = icmp ne i32 %and, 0
  ret i1 %cmp
}

; Function Attrs: nounwind sspstrong uwtable
define internal void @_nocheck__trace_m25p80_select(ptr noundef %s, ptr noundef %what) #0 {
entry:
  %s.addr = alloca ptr, align 8
  %what.addr = alloca ptr, align 8
  %_now = alloca %struct.timeval, align 8
  store ptr %s, ptr %s.addr, align 8
  store ptr %what, ptr %what.addr, align 8
  %0 = load i32, ptr @trace_events_enabled_count, align 4
  %tobool = icmp ne i32 %0, 0
  %lnot = xor i1 %tobool, true
  %lnot1 = xor i1 %lnot, true
  %lnot.ext = zext i1 %lnot1 to i32
  %conv = sext i32 %lnot.ext to i64
  %tobool2 = icmp ne i64 %conv, 0
  br i1 %tobool2, label %land.lhs.true, label %if.end11

land.lhs.true:                                    ; preds = %entry
  %1 = load i16, ptr @_TRACE_M25P80_SELECT_DSTATE, align 2
  %conv3 = zext i16 %1 to i32
  %tobool4 = icmp ne i32 %conv3, 0
  br i1 %tobool4, label %land.lhs.true5, label %if.end11

land.lhs.true5:                                   ; preds = %land.lhs.true
  %call = call zeroext i1 @qemu_loglevel_mask(i32 noundef 32768)
  br i1 %call, label %if.then, label %if.end11

if.then:                                          ; preds = %land.lhs.true5
  %2 = load i8, ptr @message_with_timestamp, align 1
  %tobool7 = trunc i8 %2 to i1
  br i1 %tobool7, label %if.then8, label %if.else

if.then8:                                         ; preds = %if.then
  %call9 = call i32 @gettimeofday(ptr noundef %_now, ptr noundef null) #7
  %call10 = call i32 @qemu_get_thread_id()
  %tv_sec = getelementptr inbounds %struct.timeval, ptr %_now, i32 0, i32 0
  %3 = load i64, ptr %tv_sec, align 8
  %tv_usec = getelementptr inbounds %struct.timeval, ptr %_now, i32 0, i32 1
  %4 = load i64, ptr %tv_usec, align 8
  %5 = load ptr, ptr %s.addr, align 8
  %6 = load ptr, ptr %what.addr, align 8
  call void (ptr, ...) @qemu_log(ptr noundef @.str.194, i32 noundef %call10, i64 noundef %3, i64 noundef %4, ptr noundef %5, ptr noundef %6)
  br label %if.end

if.else:                                          ; preds = %if.then
  %7 = load ptr, ptr %s.addr, align 8
  %8 = load ptr, ptr %what.addr, align 8
  call void (ptr, ...) @qemu_log(ptr noundef @.str.195, ptr noundef %7, ptr noundef %8)
  br label %if.end

if.end:                                           ; preds = %if.else, %if.then8
  br label %if.end11

if.end11:                                         ; preds = %if.end, %land.lhs.true5, %land.lhs.true, %entry
  ret void
}

; Function Attrs: nounwind sspstrong uwtable
define internal void @trace_m25p80_select(ptr noundef %s, ptr noundef %what) #0 {
entry:
  %s.addr = alloca ptr, align 8
  %what.addr = alloca ptr, align 8
  store ptr %s, ptr %s.addr, align 8
  store ptr %what, ptr %what.addr, align 8
  %0 = load ptr, ptr %s.addr, align 8
  %1 = load ptr, ptr %what.addr, align 8
  call void @_nocheck__trace_m25p80_select(ptr noundef %0, ptr noundef %1)
  ret void
}

; Function Attrs: nounwind sspstrong uwtable
define internal ptr @M25P80(ptr noundef %obj) #0 {
entry:
  %obj.addr = alloca ptr, align 8
  store ptr %obj, ptr %obj.addr, align 8
  %0 = load ptr, ptr %obj.addr, align 8
  %call = call ptr @object_dynamic_cast_assert(ptr noundef %0, ptr noundef @.str, ptr noundef @.str.139, i32 noundef 516, ptr noundef @__func__.M25P80)
  ret ptr %call
}

; Function Attrs: nounwind sspstrong uwtable
define internal i32 @m25p80_cs(ptr noundef %ss, i1 noundef zeroext %select) #0 {
entry:
  %ss.addr = alloca ptr, align 8
  %select.addr = alloca i8, align 1
  %s = alloca ptr, align 8
  store ptr %ss, ptr %ss.addr, align 8
  %frombool = zext i1 %select to i8
  store i8 %frombool, ptr %select.addr, align 1
  %0 = load ptr, ptr %ss.addr, align 8
  %call = call ptr @M25P80(ptr noundef %0)
  store ptr %call, ptr %s, align 8
  %1 = load i8, ptr %select.addr, align 1
  %tobool = trunc i8 %1 to i1
  br i1 %tobool, label %if.then, label %if.end4

if.then:                                          ; preds = %entry
  %2 = load ptr, ptr %s, align 8
  %state = getelementptr inbounds %struct.Flash, ptr %2, i32 0, i32 5
  %3 = load i8, ptr %state, align 8
  %conv = zext i8 %3 to i32
  %cmp = icmp eq i32 %conv, 4
  br i1 %cmp, label %if.then2, label %if.end

if.then2:                                         ; preds = %if.then
  %4 = load ptr, ptr %s, align 8
  call void @complete_collecting_data(ptr noundef %4)
  br label %if.end

if.end:                                           ; preds = %if.then2, %if.then
  %5 = load ptr, ptr %s, align 8
  %len = getelementptr inbounds %struct.Flash, ptr %5, i32 0, i32 7
  store i32 0, ptr %len, align 4
  %6 = load ptr, ptr %s, align 8
  %pos = getelementptr inbounds %struct.Flash, ptr %6, i32 0, i32 8
  store i32 0, ptr %pos, align 8
  %7 = load ptr, ptr %s, align 8
  %state3 = getelementptr inbounds %struct.Flash, ptr %7, i32 0, i32 5
  store i8 0, ptr %state3, align 8
  %8 = load ptr, ptr %s, align 8
  call void @flash_sync_dirty(ptr noundef %8, i64 noundef -1)
  %9 = load ptr, ptr %s, align 8
  %data_read_loop = getelementptr inbounds %struct.Flash, ptr %9, i32 0, i32 9
  store i8 0, ptr %data_read_loop, align 4
  br label %if.end4

if.end4:                                          ; preds = %if.end, %entry
  %10 = load ptr, ptr %s, align 8
  %11 = load i8, ptr %select.addr, align 1
  %tobool5 = trunc i8 %11 to i1
  %cond = select i1 %tobool5, ptr @.str.192, ptr @.str.193
  call void @trace_m25p80_select(ptr noundef %10, ptr noundef %cond)
  ret i32 0
}