; Function Attrs: nounwind sspstrong uwtable
define internal noundef i32 @m25p80_cs(ptr noundef %ss, i1 noundef zeroext %select) #0 {
entry:
  %_now.i.i = alloca %struct.timeval, align 8
  %call.i = tail call ptr @object_dynamic_cast_assert(ptr noundef %ss, ptr noundef nonnull @.str, ptr noundef nonnull @.str.139, i32 noundef 516, ptr noundef nonnull @__func__.M25P80) #13
  br i1 %select, label %if.then, label %if.end4

if.then:                                          ; preds = %entry
  %state = getelementptr inbounds nuw i8, ptr %call.i, i64 200
  %0 = load i8, ptr %state, align 8
  %cmp = icmp eq i8 %0, 4
  br i1 %cmp, label %if.then2, label %if.end

if.then2:                                         ; preds = %if.then
  tail call fastcc void @complete_collecting_data(ptr noundef nonnull %call.i)
  br label %if.end

if.end:                                           ; preds = %if.then2, %if.then
  %len = getelementptr inbounds nuw i8, ptr %call.i, i64 220
  store i32 0, ptr %len, align 4
  %pos = getelementptr inbounds nuw i8, ptr %call.i, i64 224
  store i32 0, ptr %pos, align 8
  store i8 0, ptr %state, align 8
  tail call fastcc void @flash_sync_dirty(ptr noundef nonnull %call.i, i64 noundef -1)
  %data_read_loop = getelementptr inbounds nuw i8, ptr %call.i, i64 228
  store i8 0, ptr %data_read_loop, align 4
  br label %if.end4

if.end4:                                          ; preds = %if.end, %entry
  %cond = phi ptr [ @.str.192, %if.end ], [ @.str.193, %entry ]
  call void @llvm.lifetime.start.p0(i64 16, ptr nonnull %_now.i.i)
  %1 = load i32, ptr @trace_events_enabled_count, align 4
  %tobool.i.i = icmp ne i32 %1, 0
  %2 = load i16, ptr @_TRACE_M25P80_SELECT_DSTATE, align 2
  %tobool4.i.i = icmp ne i16 %2, 0
  %or.cond.i.i = select i1 %tobool.i.i, i1 %tobool4.i.i, i1 false
  br i1 %or.cond.i.i, label %land.lhs.true5.i.i, label %trace_m25p80_select.exit

land.lhs.true5.i.i:                               ; preds = %if.end4
  %3 = load i32, ptr @qemu_loglevel, align 4
  %and.i.i.i = and i32 %3, 32768
  %cmp.i.not.i.i = icmp eq i32 %and.i.i.i, 0
  br i1 %cmp.i.not.i.i, label %trace_m25p80_select.exit, label %if.then.i.i

if.then.i.i:                                      ; preds = %land.lhs.true5.i.i
  %4 = load i8, ptr @message_with_timestamp, align 1
  %tobool7.i.i = trunc i8 %4 to i1
  br i1 %tobool7.i.i, label %if.then8.i.i, label %if.else.i.i

if.then8.i.i:                                     ; preds = %if.then.i.i
  %call9.i.i = call i32 @gettimeofday(ptr noundef nonnull %_now.i.i, ptr noundef null) #13
  %call10.i.i = tail call i32 @qemu_get_thread_id() #13
  %5 = load i64, ptr %_now.i.i, align 8
  %tv_usec.i.i = getelementptr inbounds nuw i8, ptr %_now.i.i, i64 8
  %6 = load i64, ptr %tv_usec.i.i, align 8
  tail call void (ptr, ...) @qemu_log(ptr noundef nonnull @.str.194, i32 noundef %call10.i.i, i64 noundef %5, i64 noundef %6, ptr noundef %call.i, ptr noundef nonnull %cond) #13
  br label %trace_m25p80_select.exit

if.else.i.i:                                      ; preds = %if.then.i.i
  tail call void (ptr, ...) @qemu_log(ptr noundef nonnull @.str.195, ptr noundef %call.i, ptr noundef nonnull %cond) #13
  br label %trace_m25p80_select.exit

trace_m25p80_select.exit:                         ; preds = %if.end4, %land.lhs.true5.i.i, %if.then8.i.i, %if.else.i.i
  call void @llvm.lifetime.end.p0(i64 16, ptr nonnull %_now.i.i)
  ret i32 0
}